; Function Attrs: mustprogress uwtable
define noundef zeroext i1 @_ZN4YAML5Utils18WriteLiteralStringERNS_15ostream_wrapperEPKcmm(ptr noundef nonnull align 8 dereferenceable(57) %0, ptr noundef readonly captures(address) %1, i64 noundef %2, i64 noundef %3) local_unnamed_addr #0 {
  %5 = alloca i8, align 1
  tail call void @_ZN4YAML15ostream_wrapper5writeEPKcm(ptr noundef nonnull align 8 dereferenceable(57) %0, ptr noundef nonnull @.str.10, i64 noundef 2)
  %6 = getelementptr inbounds nuw i8, ptr %1, i64 %2
  %.not25 = icmp samesign eq i64 %2, 0
  br i1 %.not25, label %_ZN4YAML5Utils12_GLOBAL__N_126GetNextCodePointAndAdvanceERiRPKcS4_.exit.thread15, label %.lr.ph

.lr.ph:                                           ; preds = %4
  %7 = getelementptr inbounds nuw i8, ptr %0, i64 48
  br label %8

8:                                                ; preds = %.lr.ph, %48
  %.0926 = phi ptr [ %1, %.lr.ph ], [ %.31321, %48 ]
  %9 = load i8, ptr %.0926, align 1, !tbaa !12
  %10 = lshr i8 %9, 4
  switch i8 %10, label %_ZN4YAML5Utils12_GLOBAL__N_126GetNextCodePointAndAdvanceERiRPKcS4_.exit.thread.thread [
    i8 0, label %14
    i8 1, label %14
    i8 2, label %14
    i8 3, label %14
    i8 4, label %14
    i8 5, label %14
    i8 6, label %14
    i8 7, label %14
    i8 12, label %17
    i8 13, label %17
    i8 14, label %11
    i8 15, label %12
  ]

11:                                               ; preds = %8
  br label %17

12:                                               ; preds = %8
  br label %17

_ZN4YAML5Utils12_GLOBAL__N_126GetNextCodePointAndAdvanceERiRPKcS4_.exit.thread.thread: ; preds = %8
  %13 = getelementptr inbounds nuw i8, ptr %.0926, i64 1
  br label %_ZN4YAML5Utils12_GLOBAL__N_126GetNextCodePointAndAdvanceERiRPKcS4_.exit.thread.thread30

14:                                               ; preds = %8, %8, %8, %8, %8, %8, %8, %8
  %15 = getelementptr inbounds nuw i8, ptr %.0926, i64 1
  %16 = sext i8 %9 to i32
  br label %_ZN4YAML5Utils12_GLOBAL__N_126GetNextCodePointAndAdvanceERiRPKcS4_.exit.thread

17:                                               ; preds = %12, %11, %8, %8
  %.0.i.ph.ph.i = phi i32 [ 4, %12 ], [ 3, %11 ], [ 2, %8 ], [ 2, %8 ]
  %18 = zext i8 %9 to i32
  %19 = xor i32 %.0.i.ph.ph.i, 7
  %20 = shl nuw nsw i32 255, %19
  %21 = xor i32 %20, -1
  %22 = and i32 %21, %18
  %scevgep = getelementptr i8, ptr %.0926, i64 2
  %23 = zext nneg i32 %.0.i.ph.ph.i to i64
  %24 = getelementptr i8, ptr %scevgep, i64 %23
  %scevgep29 = getelementptr i8, ptr %24, i64 -2
  br label %25

25:                                               ; preds = %30, %17
  %.0926.pn = phi ptr [ %.0926, %17 ], [ %.110, %30 ]
  %.057.in.i = phi i32 [ %.0.i.ph.ph.i, %17 ], [ %.057.i, %30 ]
  %storemerge5255.i = phi i32 [ %22, %17 ], [ %34, %30 ]
  %.110 = getelementptr inbounds nuw i8, ptr %.0926.pn, i64 1
  %.057.i = add nsw i32 %.057.in.i, -1
  %26 = icmp eq ptr %.110, %6
  br i1 %26, label %_ZN4YAML5Utils12_GLOBAL__N_126GetNextCodePointAndAdvanceERiRPKcS4_.exit.thread.thread30, label %27

27:                                               ; preds = %25
  %28 = load i8, ptr %.110, align 1, !tbaa !12
  %29 = icmp slt i8 %28, -64
  br i1 %29, label %30, label %_ZN4YAML5Utils12_GLOBAL__N_126GetNextCodePointAndAdvanceERiRPKcS4_.exit.thread.thread30

30:                                               ; preds = %27
  %31 = shl i32 %storemerge5255.i, 6
  %32 = and i8 %28, 63
  %33 = zext nneg i8 %32 to i32
  %34 = or disjoint i32 %31, %33
  %35 = icmp ugt i32 %.057.in.i, 2
  br i1 %35, label %25, label %36, !llvm.loop !18

36:                                               ; preds = %30
  %37 = icmp sgt i32 %34, 1114111
  %38 = and i32 %storemerge5255.i, 67108832
  %or.cond.i = icmp eq i32 %38, 864
  %or.cond59.i = select i1 %37, i1 true, i1 %or.cond.i
  %39 = and i32 %34, 65534
  %40 = icmp eq i32 %39, 65534
  %or.cond61.i = or i1 %or.cond59.i, %40
  %41 = add i32 %34, -64976
  %or.cond41.i = icmp ult i32 %41, 32
  %or.cond62.i = or i1 %or.cond41.i, %or.cond61.i
  br i1 %or.cond62.i, label %_ZN4YAML5Utils12_GLOBAL__N_126GetNextCodePointAndAdvanceERiRPKcS4_.exit.thread.thread30, label %_ZN4YAML5Utils12_GLOBAL__N_126GetNextCodePointAndAdvanceERiRPKcS4_.exit.thread

_ZN4YAML5Utils12_GLOBAL__N_126GetNextCodePointAndAdvanceERiRPKcS4_.exit.thread15: ; preds = %48, %4
  ret i1 true

_ZN4YAML5Utils12_GLOBAL__N_126GetNextCodePointAndAdvanceERiRPKcS4_.exit.thread: ; preds = %36, %14
  %.114 = phi i32 [ %16, %14 ], [ %34, %36 ]
  %.313 = phi ptr [ %15, %14 ], [ %scevgep29, %36 ]
  %42 = icmp eq i32 %.114, 10
  br i1 %42, label %43, label %_ZN4YAML5Utils12_GLOBAL__N_126GetNextCodePointAndAdvanceERiRPKcS4_.exit.thread.thread30

43:                                               ; preds = %_ZN4YAML5Utils12_GLOBAL__N_126GetNextCodePointAndAdvanceERiRPKcS4_.exit.thread
  call void @_ZN4YAML15ostream_wrapper5writeEPKcm(ptr noundef nonnull align 8 dereferenceable(57) %0, ptr noundef nonnull @.str.11, i64 noundef 1)
  br label %48

_ZN4YAML5Utils12_GLOBAL__N_126GetNextCodePointAndAdvanceERiRPKcS4_.exit.thread.thread30: ; preds = %27, %25, %36, %_ZN4YAML5Utils12_GLOBAL__N_126GetNextCodePointAndAdvanceERiRPKcS4_.exit.thread.thread, %_ZN4YAML5Utils12_GLOBAL__N_126GetNextCodePointAndAdvanceERiRPKcS4_.exit.thread
  %.31322 = phi ptr [ %13, %_ZN4YAML5Utils12_GLOBAL__N_126GetNextCodePointAndAdvanceERiRPKcS4_.exit.thread.thread ], [ %.313, %_ZN4YAML5Utils12_GLOBAL__N_126GetNextCodePointAndAdvanceERiRPKcS4_.exit.thread ], [ %scevgep29, %36 ], [ %6, %25 ], [ %.110, %27 ]
  %.11420 = phi i32 [ 65533, %_ZN4YAML5Utils12_GLOBAL__N_126GetNextCodePointAndAdvanceERiRPKcS4_.exit.thread.thread ], [ %.114, %_ZN4YAML5Utils12_GLOBAL__N_126GetNextCodePointAndAdvanceERiRPKcS4_.exit.thread ], [ 65533, %36 ], [ 65533, %25 ], [ 65533, %27 ]
  %44 = load i64, ptr %7, align 8, !tbaa !22
  %45 = icmp ult i64 %44, %3
  br i1 %45, label %.lr.ph.i, label %_ZN4YAMLlsERNS_15ostream_wrapperERKNS_8IndentToE.exit

.lr.ph.i:                                         ; preds = %_ZN4YAML5Utils12_GLOBAL__N_126GetNextCodePointAndAdvanceERiRPKcS4_.exit.thread.thread30, %.lr.ph.i
  call void @llvm.lifetime.start.p0(i64 1, ptr nonnull %5)
  store i8 32, ptr %5, align 1, !tbaa !12
  call void @_ZN4YAML15ostream_wrapper5writeEPKcm(ptr noundef nonnull align 8 dereferenceable(57) %0, ptr noundef nonnull %5, i64 noundef 1)
  call void @llvm.lifetime.end.p0(i64 1, ptr nonnull %5)
  %46 = load i64, ptr %7, align 8, !tbaa !22
  %47 = icmp ult i64 %46, %3
  br i1 %47, label %.lr.ph.i, label %_ZN4YAMLlsERNS_15ostream_wrapperERKNS_8IndentToE.exit, !llvm.loop !30

_ZN4YAMLlsERNS_15ostream_wrapperERKNS_8IndentToE.exit: ; preds = %.lr.ph.i, %_ZN4YAML5Utils12_GLOBAL__N_126GetNextCodePointAndAdvanceERiRPKcS4_.exit.thread.thread30
  call fastcc void @_ZN4YAML5Utils12_GLOBAL__N_114WriteCodePointERNS_15ostream_wrapperEi(ptr noundef nonnull align 8 dereferenceable(57) %0, i32 noundef %.11420)
  br label %48

48:                                               ; preds = %_ZN4YAMLlsERNS_15ostream_wrapperERKNS_8IndentToE.exit, %43
  %.31321 = phi ptr [ %.31322, %_ZN4YAMLlsERNS_15ostream_wrapperERKNS_8IndentToE.exit ], [ %.313, %43 ]
  %.not = icmp eq ptr %.31321, %6
  br i1 %.not, label %_ZN4YAML5Utils12_GLOBAL__N_126GetNextCodePointAndAdvanceERiRPKcS4_.exit.thread15, label %8, !llvm.loop !31
}